; ModuleID = '60/71.c'
source_filename = "60/71.c"
target datalayout = "e-m:e-p270:32:32-p271:32:32-p272:64:64-i64:64-f80:128-n8:16:32:64-S128"
target triple = "x86_64-pc-linux-gnu"

@.str = private unnamed_addr constant [3 x i8] c"%d\00", align 1
@.str.1 = private unnamed_addr constant [7 x i8] c"%d %d\0A\00", align 1
@.str.2 = private unnamed_addr constant [6 x i8] c"empty\00", align 1

; Function Attrs: noinline nounwind uwtable
define dso_local void @main() #0 {
  %1 = alloca i32, align 4
  %2 = alloca i32, align 4
  %3 = alloca i32, align 4
  %4 = alloca i32, align 4
  %5 = alloca i32, align 4
  store i32 0, i32* %4, align 4
  %6 = call i32 (i8*, ...) @__isoc99_scanf(i8* getelementptr inbounds ([3 x i8], [3 x i8]* @.str, i64 0, i64 0), i32* %1)
  store i32 0, i32* %2, align 4
  br label %7

7:                                                ; preds = %50, %0
  %8 = load i32, i32* %2, align 4
  %9 = load i32, i32* %1, align 4
  %10 = sub nsw i32 %9, 1
  %11 = icmp slt i32 %8, %10
  br i1 %11, label %12, label %53

12:                                               ; preds = %7
  %13 = load i32, i32* %2, align 4
  %14 = add nsw i32 %13, 2
  %15 = sitofp i32 %14 to double
  %16 = call double @sqrt(double %15) #3
  %17 = fptosi double %16 to i32
  store i32 %17, i32* %5, align 4
  store i32 2, i32* %3, align 4
  br label %18

18:                                               ; preds = %46, %12
  %19 = load i32, i32* %3, align 4
  %20 = load i32, i32* %5, align 4
  %21 = icmp sle i32 %19, %20
  br i1 %21, label %22, label %49

22:                                               ; preds = %18
  %23 = load i32, i32* %2, align 4
  %24 = load i32, i32* %3, align 4
  %25 = srem i32 %23, %24
  %26 = icmp eq i32 %25, 0
  br i1 %26, label %33, label %27

27:                                               ; preds = %22
  %28 = load i32, i32* %2, align 4
  %29 = add nsw i32 %28, 2
  %30 = load i32, i32* %3, align 4
  %31 = srem i32 %29, %30
  %32 = icmp eq i32 %31, 0
  br i1 %32, label %33, label %34

33:                                               ; preds = %27, %22
  br label %49

34:                                               ; preds = %27
  %35 = load i32, i32* %3, align 4
  %36 = load i32, i32* %5, align 4
  %37 = icmp sge i32 %35, %36
  br i1 %37, label %38, label %45

38:                                               ; preds = %34
  %39 = load i32, i32* %2, align 4
  %40 = load i32, i32* %2, align 4
  %41 = add nsw i32 %40, 2
  %42 = call i32 (i8*, ...) @printf(i8* getelementptr inbounds ([7 x i8], [7 x i8]* @.str.1, i64 0, i64 0), i32 %39, i32 %41)
  %43 = load i32, i32* %4, align 4
  %44 = add nsw i32 %43, 1
  store i32 %44, i32* %4, align 4
  br label %45

45:                                               ; preds = %38, %34
  br label %46

46:                                               ; preds = %45
  %47 = load i32, i32* %3, align 4
  %48 = add nsw i32 %47, 1
  store i32 %48, i32* %3, align 4
  br label %18

49:                                               ; preds = %33, %18
  br label %50

50:                                               ; preds = %49
  %51 = load i32, i32* %2, align 4
  %52 = add nsw i32 %51, 1
  store i32 %52, i32* %2, align 4
  br label %7

53:                                               ; preds = %7
  %54 = load i32, i32* %4, align 4
  %55 = icmp eq i32 %54, 0
  br i1 %55, label %56, label %58

56:                                               ; preds = %53
  %57 = call i32 (i8*, ...) @printf(i8* getelementptr inbounds ([6 x i8], [6 x i8]* @.str.2, i64 0, i64 0))
  br label %58

58:                                               ; preds = %56, %53
  ret void
}

declare dso_local i32 @__isoc99_scanf(i8*, ...) #1

; Function Attrs: nounwind
declare dso_local double @sqrt(double) #2

declare dso_local i32 @printf(i8*, ...) #1


!llvm.module.flags = !{!0}
!llvm.ident = !{!1}

!0 = !{i32 1, !"wchar_size", i32 4}
!1 = !{!"clang version 10.0.0-4ubuntu1 "}
